; Function Attrs: nounwind uwtable
define internal fastcc range(i64 1, 0) i64 @HUF_readStats_body_bmi2(ptr noundef %0, i64 noundef %1, ptr noundef captures(none) %2, ptr noundef writeonly captures(none) %3, ptr noundef writeonly captures(none) %4, ptr noundef %5, i64 noundef %6, ptr noundef %7, i64 noundef %8) unnamed_addr #5 {
  %.not.i = icmp eq i64 %6, 0
  br i1 %.not.i, label %HUF_readStats_body.exit, label %10

10:                                               ; preds = %9
  %11 = load i8, ptr %5, align 1, !tbaa !12
  %12 = zext i8 %11 to i64
  %13 = icmp slt i8 %11, 0
  br i1 %13, label %14, label %32

14:                                               ; preds = %10
  %15 = add nsw i64 %12, -127
  %16 = add nsw i64 %12, -126
  %17 = lshr i64 %16, 1
  %.not89.i = icmp ult i64 %17, %6
  br i1 %.not89.i, label %18, label %HUF_readStats_body.exit

18:                                               ; preds = %14
  %.not90.i = icmp ult i64 %15, %1
  br i1 %.not90.i, label %19, label %HUF_readStats_body.exit

19:                                               ; preds = %18
  %20 = getelementptr inbounds nuw i8, ptr %5, i64 1
  %.not = icmp eq i64 %15, 0
  br i1 %.not, label %.loopexit.thread, label %.lr.ph.preheader

.loopexit.thread:                                 ; preds = %19
  tail call void @llvm.memset.p0.i64(ptr noundef nonnull align 4 dereferenceable(52) %2, i8 0, i64 52, i1 false)
  br label %HUF_readStats_body.exit

.lr.ph.preheader:                                 ; preds = %19
  %21 = trunc nuw nsw i64 %15 to i32
  br label %.lr.ph

.lr.ph:                                           ; preds = %.lr.ph.preheader, %.lr.ph
  %indvars.iv = phi i64 [ 0, %.lr.ph.preheader ], [ %indvars.iv.next, %.lr.ph ]
  %22 = lshr exact i64 %indvars.iv, 1
  %23 = getelementptr inbounds nuw i8, ptr %20, i64 %22
  %24 = load i8, ptr %23, align 1, !tbaa !12
  %25 = lshr i8 %24, 4
  %26 = getelementptr inbounds nuw i8, ptr %0, i64 %indvars.iv
  store i8 %25, ptr %26, align 1, !tbaa !12
  %27 = load i8, ptr %23, align 1, !tbaa !12
  %28 = and i8 %27, 15
  %29 = or disjoint i64 %indvars.iv, 1
  %30 = getelementptr inbounds nuw i8, ptr %0, i64 %29
  store i8 %28, ptr %30, align 1, !tbaa !12
  %indvars.iv.next = add nuw i64 %indvars.iv, 2
  %indvars = trunc i64 %indvars.iv.next to i32
  %31 = icmp ugt i32 %21, %indvars
  br i1 %31, label %.lr.ph, label %.loopexit, !llvm.loop !13

32:                                               ; preds = %10
  %.not87.i = icmp ugt i64 %6, %12
  br i1 %.not87.i, label %33, label %HUF_readStats_body.exit

33:                                               ; preds = %32
  %34 = add i64 %1, -1
  %35 = getelementptr inbounds nuw i8, ptr %5, i64 1
  %36 = tail call i64 @FSE_decompress_wksp_bmi2(ptr noundef %0, i64 noundef %34, ptr noundef nonnull %35, i64 noundef %12, i32 noundef 6, ptr noundef %7, i64 noundef %8, i32 noundef 1) #10
  %37 = icmp ult i64 %36, -119
  br i1 %37, label %.loopexit, label %HUF_readStats_body.exit

.loopexit:                                        ; preds = %.lr.ph, %33
  %.074.i = phi i64 [ %36, %33 ], [ %15, %.lr.ph ]
  %.073.i = phi i64 [ %12, %33 ], [ %17, %.lr.ph ]
  tail call void @llvm.memset.p0.i64(ptr noundef nonnull align 4 dereferenceable(52) %2, i8 0, i64 52, i1 false)
  %.not91.i10.not = icmp eq i64 %.074.i, 0
  br i1 %.not91.i10.not, label %HUF_readStats_body.exit, label %.lr.ph13

.lr.ph13:                                         ; preds = %.loopexit, %42
  %38 = phi i64 [ %53, %42 ], [ 0, %.loopexit ]
  %.072.i12 = phi i32 [ %51, %42 ], [ 0, %.loopexit ]
  %.075.i11 = phi i32 [ %52, %42 ], [ 0, %.loopexit ]
  %39 = getelementptr inbounds nuw i8, ptr %0, i64 %38
  %40 = load i8, ptr %39, align 1, !tbaa !12
  %41 = icmp ugt i8 %40, 12
  br i1 %41, label %HUF_readStats_body.exit, label %42

42:                                               ; preds = %.lr.ph13
  %43 = zext nneg i8 %40 to i64
  %44 = getelementptr inbounds nuw i32, ptr %2, i64 %43
  %45 = load i32, ptr %44, align 4, !tbaa !3
  %46 = add i32 %45, 1
  store i32 %46, ptr %44, align 4, !tbaa !3
  %47 = load i8, ptr %39, align 1, !tbaa !12
  %48 = zext nneg i8 %47 to i32
  %49 = shl nuw i32 1, %48
  %50 = ashr i32 %49, 1
  %51 = add i32 %50, %.072.i12
  %52 = add i32 %.075.i11, 1
  %53 = zext i32 %52 to i64
  %.not91.i = icmp ugt i64 %.074.i, %53
  br i1 %.not91.i, label %.lr.ph13, label %.critedge.i, !llvm.loop !14

.critedge.i:                                      ; preds = %42
  %.old.i = icmp eq i32 %51, 0
  br i1 %.old.i, label %HUF_readStats_body.exit, label %54

54:                                               ; preds = %.critedge.i
  %55 = tail call range(i32 0, 32) i32 @llvm.ctlz.i32(i32 %51, i1 true)
  %56 = xor i32 %55, 31
  %57 = icmp samesign ugt i32 %56, 11
  br i1 %57, label %HUF_readStats_body.exit, label %58

58:                                               ; preds = %54
  %59 = sub nuw nsw i32 32, %55
  store i32 %59, ptr %4, align 4, !tbaa !3
  %60 = shl nuw nsw i32 2, %56
  %61 = sub i32 %60, %51
  %62 = tail call range(i32 0, 32) i32 @llvm.ctlz.i32(i32 %61, i1 true)
  %63 = xor i32 %62, 31
  %64 = shl nuw i32 1, %63
  %.not92.i = icmp eq i32 %64, %61
  br i1 %.not92.i, label %65, label %HUF_readStats_body.exit

65:                                               ; preds = %58
  %66 = sub nuw nsw i32 32, %62
  %67 = trunc nuw nsw i32 %66 to i8
  %68 = getelementptr inbounds nuw i8, ptr %0, i64 %.074.i
  store i8 %67, ptr %68, align 1, !tbaa !12
  %69 = zext nneg i32 %66 to i64
  %70 = getelementptr inbounds nuw i32, ptr %2, i64 %69
  %71 = load i32, ptr %70, align 4, !tbaa !3
  %72 = add i32 %71, 1
  store i32 %72, ptr %70, align 4, !tbaa !3
  %73 = getelementptr inbounds nuw i8, ptr %2, i64 4
  %74 = load i32, ptr %73, align 4, !tbaa !3
  %75 = icmp ugt i32 %74, 1
  %76 = and i32 %74, 1
  %.not93.i = icmp eq i32 %76, 0
  %or.cond.i = and i1 %75, %.not93.i
  br i1 %or.cond.i, label %77, label %HUF_readStats_body.exit

77:                                               ; preds = %65
  %78 = trunc i64 %.074.i to i32
  %79 = add i32 %78, 1
  store i32 %79, ptr %3, align 4, !tbaa !3
  %80 = add nuw nsw i64 %.073.i, 1
  br label %HUF_readStats_body.exit

HUF_readStats_body.exit:                          ; preds = %.lr.ph13, %.loopexit.thread, %.loopexit, %9, %14, %18, %32, %33, %.critedge.i, %54, %58, %65, %77
  %.0.i = phi i64 [ %80, %77 ], [ -72, %9 ], [ -72, %14 ], [ -20, %18 ], [ -72, %32 ], [ %36, %33 ], [ -20, %.critedge.i ], [ -20, %65 ], [ -20, %54 ], [ -20, %58 ], [ -20, %.loopexit ], [ -20, %.loopexit.thread ], [ -20, %.lr.ph13 ]
  ret i64 %.0.i
}